; Function Attrs: nounwind sspstrong uwtable
define internal void @ehci_wakeup_endpoint(ptr noundef captures(none) %bus, ptr noundef readonly captures(none) %ep, i32 %stream) #0 {
entry:
  %portsc1 = getelementptr inbounds nuw i8, ptr %bus, i64 1416
  %dev = getelementptr inbounds nuw i8, ptr %ep, i64 16
  %0 = load ptr, ptr %dev, align 8
  %port = getelementptr inbounds nuw i8, ptr %0, i64 160
  %1 = load ptr, ptr %port, align 8
  %index = getelementptr inbounds nuw i8, ptr %1, i64 48
  %2 = load i32, ptr %index, align 8
  %idxprom = sext i32 %2 to i64
  %arrayidx = getelementptr [6 x i32], ptr %portsc1, i64 0, i64 %idxprom
  %3 = load i32, ptr %arrayidx, align 4
  %and = and i32 %3, 8192
  %tobool.not = icmp eq i32 %and, 0
  br i1 %tobool.not, label %if.end, label %return

if.end:                                           ; preds = %entry
  %periodic_sched_active = getelementptr inbounds nuw i8, ptr %bus, i64 2188
  store i32 512, ptr %periodic_sched_active, align 4
  %async_bh = getelementptr inbounds nuw i8, ptr %bus, i64 1448
  %4 = load ptr, ptr %async_bh, align 8
  tail call void @qemu_bh_schedule(ptr noundef %4) #17
  br label %return

return:                                           ; preds = %entry, %if.end
  ret void
}